target datalayout = "e-m:e-p270:32:32-p271:32:32-p272:64:64-i64:64-i128:128-f80:128-n8:16:32:64-S128"
target triple = "x86_64-pc-linux-gnu"

%struct.cli_bc_ctx = type { i8, i16, i32, ptr, ptr, i32, i32, ptr, ptr, ptr, i32, i32, i64, ptr, ptr, ptr, %struct.cli_bc_hooks, %struct.cli_exe_info, [64 x i32], [64 x i32], i32, ptr, ptr, i32, i32, i32, i32, ptr, i32, ptr, ptr, i32, i32, i32, i32, i32, i32, ptr, ptr, ptr, ptr, ptr, ptr, ptr, i32, i32, i32, i32, ptr, ptr, ptr, ptr, ptr, i32, i32, i32, i32, ptr, ptr, ptr, ptr, i32, i32, i32, ptr, i32, ptr, i32, i32, ptr, i32 }
%struct.cli_bc_hooks = type { ptr, ptr, ptr, ptr, ptr }
%struct.cli_exe_info = type { ptr, i32, i32, i16, i32, i32, %struct.cli_hashset, i32, i32, i32, i32, i32, i32, i32, i32, i32, %struct.pe_image_file_hdr, %union.anon, [16 x %struct.pe_image_data_dir] }
%struct.cli_hashset = type { ptr, ptr, ptr, i32, i32, i32, i32 }
%struct.pe_image_file_hdr = type { i32, i16, i16, i32, i32, i32, i16, i16 }
%union.anon = type { %struct.pe_image_optional_hdr64 }
%struct.pe_image_optional_hdr64 = type { i16, i8, i8, i32, i32, i32, i32, i32, i64, i32, i32, i16, i16, i16, i16, i16, i16, i32, i32, i32, i32, i16, i16, i64, i64, i64, i64, i32, i32 }
%struct.pe_image_data_dir = type { i32, i32 }
%struct.cli_ctx_tag = type { ptr, ptr, ptr, ptr, ptr, ptr, ptr, i64, ptr, i32, i32, ptr, i32, i32, ptr, [16 x i8], ptr, ptr, ptr, ptr, ptr, ptr, %struct.timeval, i8, i8 }
%struct.timeval = type { i64, i64 }

@.str.133 = private unnamed_addr constant [58 x i8] c"bytecode api[json_get_int]: invalid json objid requested\0A\00", align 1

; Function Attrs: nounwind uwtable
define internal i32 @cli_bcapi_json_objs_init(ptr noundef %0) #0 {
  %2 = alloca i32, align 4
  %3 = alloca ptr, align 8
  %4 = alloca i32, align 4
  %5 = alloca ptr, align 8
  %6 = alloca ptr, align 8
  %7 = alloca ptr, align 8
  store ptr %0, ptr %3, align 8
  %8 = load ptr, ptr %3, align 8
  %9 = getelementptr inbounds %struct.cli_bc_ctx, ptr %8, i32 0, i32 70
  %10 = load i32, ptr %9, align 8
  %11 = add i32 %10, 1
  store i32 %11, ptr %4, align 4
  %12 = load ptr, ptr %3, align 8
  %13 = getelementptr inbounds %struct.cli_bc_ctx, ptr %12, i32 0, i32 69
  %14 = load ptr, ptr %13, align 8
  store ptr %14, ptr %6, align 8
  %15 = load ptr, ptr %3, align 8
  %16 = getelementptr inbounds %struct.cli_bc_ctx, ptr %15, i32 0, i32 30
  %17 = load ptr, ptr %16, align 8
  store ptr %17, ptr %7, align 8
  %18 = load ptr, ptr %6, align 8
  %19 = load i32, ptr %4, align 4
  %20 = zext i32 %19 to i64
  %21 = mul i64 8, %20
  %22 = call ptr @cli_max_realloc(ptr noundef %18, i64 noundef %21)
  store ptr %22, ptr %5, align 8
  %23 = load ptr, ptr %5, align 8
  %24 = icmp ne ptr %23, null
  br i1 %24, label %29, label %25

25:                                               ; preds = %1
  %26 = load ptr, ptr %3, align 8
  %27 = getelementptr inbounds %struct.cli_bc_ctx, ptr %26, i32 0, i32 66
  %28 = load ptr, ptr %27, align 8
  call void @cli_event_error_oom(ptr noundef %28, i32 noundef 0)
  store i32 -1, ptr %2, align 4
  br label %44

29:                                               ; preds = %1
  %30 = load ptr, ptr %5, align 8
  %31 = load ptr, ptr %3, align 8
  %32 = getelementptr inbounds %struct.cli_bc_ctx, ptr %31, i32 0, i32 69
  store ptr %30, ptr %32, align 8
  %33 = load i32, ptr %4, align 4
  %34 = load ptr, ptr %3, align 8
  %35 = getelementptr inbounds %struct.cli_bc_ctx, ptr %34, i32 0, i32 70
  store i32 %33, ptr %35, align 8
  %36 = load ptr, ptr %7, align 8
  %37 = getelementptr inbounds %struct.cli_ctx_tag, ptr %36, i32 0, i32 20
  %38 = load ptr, ptr %37, align 8
  %39 = load ptr, ptr %5, align 8
  %40 = load i32, ptr %4, align 4
  %41 = sub i32 %40, 1
  %42 = zext i32 %41 to i64
  %43 = getelementptr inbounds ptr, ptr %39, i64 %42
  store ptr %38, ptr %43, align 8
  store i32 0, ptr %2, align 4
  br label %44

44:                                               ; preds = %29, %25
  %45 = load i32, ptr %2, align 4
  ret i32 %45
}

; Function Attrs: nounwind uwtable
define i32 @cli_bcapi_json_is_active(ptr noundef %0) #0 {
  %2 = alloca i32, align 4
  %3 = alloca ptr, align 8
  %4 = alloca ptr, align 8
  store ptr %0, ptr %3, align 8
  %5 = load ptr, ptr %3, align 8
  %6 = getelementptr inbounds %struct.cli_bc_ctx, ptr %5, i32 0, i32 30
  %7 = load ptr, ptr %6, align 8
  store ptr %7, ptr %4, align 8
  %8 = load ptr, ptr %4, align 8
  %9 = getelementptr inbounds %struct.cli_ctx_tag, ptr %8, i32 0, i32 20
  %10 = load ptr, ptr %9, align 8
  %11 = icmp ne ptr %10, null
  br i1 %11, label %12, label %13

12:                                               ; preds = %1
  store i32 1, ptr %2, align 4
  br label %14

13:                                               ; preds = %1
  store i32 0, ptr %2, align 4
  br label %14

14:                                               ; preds = %13, %12
  %15 = load i32, ptr %2, align 4
  ret i32 %15
}

; Function Attrs: nounwind uwtable
define i32 @cli_bcapi_json_get_int(ptr noundef %0, i32 noundef %1) #0 {
  %3 = alloca i32, align 4
  %4 = alloca ptr, align 8
  %5 = alloca i32, align 4
  %6 = alloca ptr, align 8
  %7 = alloca ptr, align 8
  store ptr %0, ptr %4, align 8
  store i32 %1, ptr %5, align 4
  %8 = load ptr, ptr %4, align 8
  %9 = call i32 @cli_bcapi_json_is_active(ptr noundef %8)
  %10 = icmp ne i32 %9, 0
  br i1 %10, label %12, label %11

11:                                               ; preds = %2
  store i32 -1, ptr %3, align 4
  br label %44

12:                                               ; preds = %2
  %13 = load ptr, ptr %4, align 8
  %14 = getelementptr inbounds %struct.cli_bc_ctx, ptr %13, i32 0, i32 70
  %15 = load i32, ptr %14, align 8
  %16 = icmp eq i32 %15, 0
  br i1 %16, label %17, label %23

17:                                               ; preds = %12
  %18 = load ptr, ptr %4, align 8
  %19 = call i32 @cli_bcapi_json_objs_init(ptr noundef %18)
  %20 = icmp ne i32 %19, 0
  br i1 %20, label %21, label %22

21:                                               ; preds = %17
  store i32 -1, ptr %3, align 4
  br label %44

22:                                               ; preds = %17
  br label %23

23:                                               ; preds = %22, %12
  %24 = load ptr, ptr %4, align 8
  %25 = getelementptr inbounds %struct.cli_bc_ctx, ptr %24, i32 0, i32 69
  %26 = load ptr, ptr %25, align 8
  store ptr %26, ptr %7, align 8
  %27 = load i32, ptr %5, align 4
  %28 = icmp slt i32 %27, 0
  br i1 %28, label %35, label %29

29:                                               ; preds = %23
  %30 = load i32, ptr %5, align 4
  %31 = load ptr, ptr %4, align 8
  %32 = getelementptr inbounds %struct.cli_bc_ctx, ptr %31, i32 0, i32 70
  %33 = load i32, ptr %32, align 8
  %34 = icmp uge i32 %30, %33
  br i1 %34, label %35, label %36

35:                                               ; preds = %29, %23
  call void (ptr, ...) @cli_dbgmsg(ptr noundef @.str.133)
  store i32 -1, ptr %3, align 4
  br label %44

36:                                               ; preds = %29
  %37 = load ptr, ptr %7, align 8
  %38 = load i32, ptr %5, align 4
  %39 = sext i32 %38 to i64
  %40 = getelementptr inbounds ptr, ptr %37, i64 %39
  %41 = load ptr, ptr %40, align 8
  store ptr %41, ptr %6, align 8
  %42 = load ptr, ptr %6, align 8
  %43 = call i32 @json_object_get_int(ptr noundef %42)
  store i32 %43, ptr %3, align 4
  br label %44

44:                                               ; preds = %36, %35, %21, %11
  %45 = load i32, ptr %3, align 4
  ret i32 %45
}